target datalayout = "e-m:e-p270:32:32-p271:32:32-p272:64:64-i64:64-i128:128-f80:128-n8:16:32:64-S128"
target triple = "x86_64-pc-linux-gnu"

%"struct.rocksdb::PerfContext" = type <{ %"struct.rocksdb::PerfContextBase", ptr, i8, [7 x i8] }>
%"struct.rocksdb::PerfContextBase" = type { i64, i64, i64, i64, i64, i64, i64, i64, i64, i64, i64, i64, i64, i64, i64, i64, i64, i64, i64, i64, i64, i64, i64, i64, i64, i64, i64, i64, i64, i64, i64, i64, i64, i64, i64, i64, i64, i64, i64, i64, i64, i64, i64, i64, i64, i64, i64, i64, i64, i64, i64, i64, i64, i64, i64, i64, i64, i64, i64, i64, i64, i64, i64, i64, i64, i64, i64, i64, i64, i64, i64, i64, i64, i64, i64, i64, i64, i64, i64, i64, i64, i64, i64, i64, i64, i64, i64, i64, i64, i64, i64, i64, i64, i64, i64, i64, i64, i64, i64, i64, i64, i64, i64, i64, i64, i64, i64 }
%"class.rocksdb::Slice" = type { ptr, i64 }
%"class.rocksdb::InternalKeyComparator" = type { %"class.rocksdb::CompareInterface", %"class.rocksdb::UserComparatorWrapper" }
%"class.rocksdb::CompareInterface" = type { ptr }
%"class.rocksdb::UserComparatorWrapper" = type { ptr }
%"struct.rocksdb::MemTable::KeyComparator" = type { %"class.rocksdb::MemTableRep::KeyComparator", %"class.rocksdb::InternalKeyComparator" }
%"class.rocksdb::MemTableRep::KeyComparator" = type { ptr }

@_ZN7rocksdb12perf_contextE = external thread_local global %"struct.rocksdb::PerfContext", align 8
@_ZN7rocksdb10perf_levelE = external thread_local global i8, align 1

; Function Attrs: uwtable
define linkonce_odr hidden noundef ptr @_ZTWN7rocksdb12perf_contextE() #17 comdat {
  %1 = icmp ne ptr @_ZTHN7rocksdb12perf_contextE, null
  br i1 %1, label %2, label %3

2:                                                ; preds = %0
  call void @_ZTHN7rocksdb12perf_contextE()
  br label %3

3:                                                ; preds = %2, %0
  %4 = call align 8 ptr @llvm.threadlocal.address.p0(ptr align 8 @_ZN7rocksdb12perf_contextE)
  ret ptr %4
}

; Function Attrs: uwtable
define linkonce_odr hidden noundef ptr @_ZTWN7rocksdb10perf_levelE() #17 comdat {
  %1 = icmp ne ptr @_ZTHN7rocksdb10perf_levelE, null
  br i1 %1, label %2, label %3

2:                                                ; preds = %0
  call void @_ZTHN7rocksdb10perf_levelE()
  br label %3

3:                                                ; preds = %2, %0
  %4 = call align 1 ptr @llvm.threadlocal.address.p0(ptr align 1 @_ZN7rocksdb10perf_levelE)
  ret ptr %4
}

; Function Attrs: inlinehint mustprogress nounwind uwtable
define linkonce_odr noundef i64 @_ZN7rocksdb13DecodeFixed64EPKc(ptr noundef %0) #1 comdat {
  %2 = alloca ptr, align 8
  %3 = alloca i64, align 8
  store ptr %0, ptr %2, align 8, !tbaa !28
  call void @llvm.lifetime.start.p0(i64 8, ptr %3) #6
  %4 = load ptr, ptr %2, align 8, !tbaa !28
  call void @llvm.memcpy.p0.p0.i64(ptr align 8 %3, ptr align 1 %4, i64 8, i1 false)
  %5 = load i64, ptr %3, align 8, !tbaa !4
  call void @llvm.lifetime.end.p0(i64 8, ptr %3) #6
  ret i64 %5
}

; Function Attrs: mustprogress nounwind uwtable
define linkonce_odr noundef i64 @_ZNK7rocksdb5Slice4sizeEv(ptr noundef nonnull align 8 dereferenceable(16) %0) #5 comdat align 2 {
  %2 = alloca ptr, align 8
  store ptr %0, ptr %2, align 8, !tbaa !13
  %3 = load ptr, ptr %2, align 8
  %4 = getelementptr inbounds nuw %"class.rocksdb::Slice", ptr %3, i32 0, i32 1
  %5 = load i64, ptr %4, align 8, !tbaa !32
  ret i64 %5
}

; Function Attrs: mustprogress nounwind uwtable
define linkonce_odr noundef ptr @_ZNK7rocksdb5Slice4dataEv(ptr noundef nonnull align 8 dereferenceable(16) %0) #5 comdat align 2 {
  %2 = alloca ptr, align 8
  store ptr %0, ptr %2, align 8, !tbaa !13
  %3 = load ptr, ptr %2, align 8
  %4 = getelementptr inbounds nuw %"class.rocksdb::Slice", ptr %3, i32 0, i32 0
  %5 = load ptr, ptr %4, align 8, !tbaa !30
  ret ptr %5
}

; Function Attrs: mustprogress uwtable
define linkonce_odr noundef i32 @_ZNK7rocksdb21UserComparatorWrapper7CompareERKNS_5SliceES3_(ptr noundef nonnull align 8 dereferenceable(8) %0, ptr noundef nonnull align 8 dereferenceable(16) %1, ptr noundef nonnull align 8 dereferenceable(16) %2) #4 comdat align 2 {
  %4 = alloca ptr, align 8
  %5 = alloca ptr, align 8
  %6 = alloca ptr, align 8
  store ptr %0, ptr %4, align 8, !tbaa !17
  store ptr %1, ptr %5, align 8, !tbaa !13
  store ptr %2, ptr %6, align 8, !tbaa !13
  %7 = load ptr, ptr %4, align 8
  %8 = call ptr @_ZTWN7rocksdb10perf_levelE()
  %9 = load i8, ptr %8, align 1, !tbaa !19
  %10 = zext i8 %9 to i32
  %11 = icmp sge i32 %10, 2
  br i1 %11, label %12, label %17

12:                                               ; preds = %3
  %13 = call ptr @_ZTWN7rocksdb12perf_contextE()
  %14 = getelementptr inbounds nuw %"struct.rocksdb::PerfContextBase", ptr %13, i32 0, i32 0
  %15 = load i64, ptr %14, align 8, !tbaa !21
  %16 = add i64 %15, 1
  store i64 %16, ptr %14, align 8, !tbaa !21
  br label %17

17:                                               ; preds = %12, %3
  %18 = getelementptr inbounds nuw %"class.rocksdb::UserComparatorWrapper", ptr %7, i32 0, i32 0
  %19 = load ptr, ptr %18, align 8, !tbaa !23
  %20 = getelementptr inbounds i8, ptr %19, i64 32
  %21 = load ptr, ptr %5, align 8, !tbaa !13
  %22 = load ptr, ptr %6, align 8, !tbaa !13
  %23 = load ptr, ptr %20, align 8, !tbaa !26
  %24 = getelementptr inbounds ptr, ptr %23, i64 2
  %25 = load ptr, ptr %24, align 8
  %26 = call noundef i32 %25(ptr noundef nonnull align 8 dereferenceable(8) %20, ptr noundef nonnull align 8 dereferenceable(16) %21, ptr noundef nonnull align 8 dereferenceable(16) %22)
  ret i32 %26
}

; Function Attrs: inlinehint mustprogress uwtable
define linkonce_odr { ptr, i64 } @_ZN7rocksdb14ExtractUserKeyERKNS_5SliceE(ptr noundef nonnull align 8 dereferenceable(16) %0) #3 comdat {
  %2 = alloca %"class.rocksdb::Slice", align 8
  %3 = alloca ptr, align 8
  store ptr %0, ptr %3, align 8, !tbaa !13
  %4 = load ptr, ptr %3, align 8, !tbaa !13
  %5 = call noundef ptr @_ZNK7rocksdb5Slice4dataEv(ptr noundef nonnull align 8 dereferenceable(16) %4)
  %6 = load ptr, ptr %3, align 8, !tbaa !13
  %7 = call noundef i64 @_ZNK7rocksdb5Slice4sizeEv(ptr noundef nonnull align 8 dereferenceable(16) %6)
  %8 = sub i64 %7, 8
  call void @_ZN7rocksdb5SliceC2EPKcm(ptr noundef nonnull align 8 dereferenceable(16) %2, ptr noundef %5, i64 noundef %8)
  %9 = load { ptr, i64 }, ptr %2, align 8
  ret { ptr, i64 } %9
}

; Function Attrs: mustprogress nounwind uwtable
define linkonce_odr void @_ZN7rocksdb5SliceC2EPKcm(ptr noundef nonnull align 8 dereferenceable(16) %0, ptr noundef %1, i64 noundef %2) unnamed_addr #5 comdat align 2 {
  %4 = alloca ptr, align 8
  %5 = alloca ptr, align 8
  %6 = alloca i64, align 8
  store ptr %0, ptr %4, align 8, !tbaa !13
  store ptr %1, ptr %5, align 8, !tbaa !28
  store i64 %2, ptr %6, align 8, !tbaa !4
  %7 = load ptr, ptr %4, align 8
  %8 = getelementptr inbounds nuw %"class.rocksdb::Slice", ptr %7, i32 0, i32 0
  %9 = load ptr, ptr %5, align 8, !tbaa !28
  store ptr %9, ptr %8, align 8, !tbaa !30
  %10 = getelementptr inbounds nuw %"class.rocksdb::Slice", ptr %7, i32 0, i32 1
  %11 = load i64, ptr %6, align 8, !tbaa !4
  store i64 %11, ptr %10, align 8, !tbaa !32
  ret void
}

; Function Attrs: inlinehint mustprogress uwtable
define linkonce_odr noundef ptr @_ZN7rocksdb14GetVarint32PtrEPKcS1_Pj(ptr noundef %0, ptr noundef %1, ptr noundef %2) #3 comdat {
  %4 = alloca ptr, align 8
  %5 = alloca ptr, align 8
  %6 = alloca ptr, align 8
  %7 = alloca ptr, align 8
  %8 = alloca i32, align 4
  %9 = alloca i32, align 4
  store ptr %0, ptr %5, align 8, !tbaa !28
  store ptr %1, ptr %6, align 8, !tbaa !28
  store ptr %2, ptr %7, align 8, !tbaa !474
  %10 = load ptr, ptr %5, align 8, !tbaa !28
  %11 = load ptr, ptr %6, align 8, !tbaa !28
  %12 = icmp ult ptr %10, %11
  br i1 %12, label %13, label %29

13:                                               ; preds = %3
  call void @llvm.lifetime.start.p0(i64 4, ptr %8) #6
  %14 = load ptr, ptr %5, align 8, !tbaa !28
  %15 = load i8, ptr %14, align 1, !tbaa !475
  %16 = zext i8 %15 to i32
  store i32 %16, ptr %8, align 4, !tbaa !15
  %17 = load i32, ptr %8, align 4, !tbaa !15
  %18 = and i32 %17, 128
  %19 = icmp eq i32 %18, 0
  br i1 %19, label %20, label %25

20:                                               ; preds = %13
  %21 = load i32, ptr %8, align 4, !tbaa !15
  %22 = load ptr, ptr %7, align 8, !tbaa !474
  store i32 %21, ptr %22, align 4, !tbaa !15
  %23 = load ptr, ptr %5, align 8, !tbaa !28
  %24 = getelementptr inbounds i8, ptr %23, i64 1
  store ptr %24, ptr %4, align 8
  store i32 1, ptr %9, align 4
  br label %26

25:                                               ; preds = %13
  store i32 0, ptr %9, align 4
  br label %26

26:                                               ; preds = %25, %20
  call void @llvm.lifetime.end.p0(i64 4, ptr %8) #6
  %27 = load i32, ptr %9, align 4
  switch i32 %27, label %36 [
    i32 0, label %28
    i32 1, label %34
  ]

28:                                               ; preds = %26
  br label %29

29:                                               ; preds = %28, %3
  %30 = load ptr, ptr %5, align 8, !tbaa !28
  %31 = load ptr, ptr %6, align 8, !tbaa !28
  %32 = load ptr, ptr %7, align 8, !tbaa !474
  %33 = call noundef ptr @_ZN7rocksdb22GetVarint32PtrFallbackEPKcS1_Pj(ptr noundef %30, ptr noundef %31, ptr noundef %32)
  store ptr %33, ptr %4, align 8
  br label %34

34:                                               ; preds = %29, %26
  %35 = load ptr, ptr %4, align 8
  ret ptr %35

36:                                               ; preds = %26
  unreachable
}

; Function Attrs: inlinehint mustprogress uwtable
define linkonce_odr noundef i32 @_ZNK7rocksdb21InternalKeyComparator13CompareKeySeqERKNS_5SliceES3_(ptr noundef nonnull align 8 dereferenceable(16) %0, ptr noundef nonnull align 8 dereferenceable(16) %1, ptr noundef nonnull align 8 dereferenceable(16) %2) #3 comdat align 2 {
  %4 = alloca ptr, align 8
  %5 = alloca ptr, align 8
  %6 = alloca ptr, align 8
  %7 = alloca i32, align 4
  %8 = alloca %"class.rocksdb::Slice", align 8
  %9 = alloca %"class.rocksdb::Slice", align 8
  %10 = alloca i64, align 8
  %11 = alloca i64, align 8
  store ptr %0, ptr %4, align 8, !tbaa !10
  store ptr %1, ptr %5, align 8, !tbaa !13
  store ptr %2, ptr %6, align 8, !tbaa !13
  %12 = load ptr, ptr %4, align 8
  call void @llvm.lifetime.start.p0(i64 4, ptr %7) #6
  %13 = getelementptr inbounds nuw %"class.rocksdb::InternalKeyComparator", ptr %12, i32 0, i32 1
  call void @llvm.lifetime.start.p0(i64 16, ptr %8) #6
  %14 = load ptr, ptr %5, align 8, !tbaa !13
  %15 = call { ptr, i64 } @_ZN7rocksdb14ExtractUserKeyERKNS_5SliceE(ptr noundef nonnull align 8 dereferenceable(16) %14)
  %16 = getelementptr inbounds nuw { ptr, i64 }, ptr %8, i32 0, i32 0
  %17 = extractvalue { ptr, i64 } %15, 0
  store ptr %17, ptr %16, align 8
  %18 = getelementptr inbounds nuw { ptr, i64 }, ptr %8, i32 0, i32 1
  %19 = extractvalue { ptr, i64 } %15, 1
  store i64 %19, ptr %18, align 8
  call void @llvm.lifetime.start.p0(i64 16, ptr %9) #6
  %20 = load ptr, ptr %6, align 8, !tbaa !13
  %21 = call { ptr, i64 } @_ZN7rocksdb14ExtractUserKeyERKNS_5SliceE(ptr noundef nonnull align 8 dereferenceable(16) %20)
  %22 = getelementptr inbounds nuw { ptr, i64 }, ptr %9, i32 0, i32 0
  %23 = extractvalue { ptr, i64 } %21, 0
  store ptr %23, ptr %22, align 8
  %24 = getelementptr inbounds nuw { ptr, i64 }, ptr %9, i32 0, i32 1
  %25 = extractvalue { ptr, i64 } %21, 1
  store i64 %25, ptr %24, align 8
  %26 = call noundef i32 @_ZNK7rocksdb21UserComparatorWrapper7CompareERKNS_5SliceES3_(ptr noundef nonnull align 8 dereferenceable(8) %13, ptr noundef nonnull align 8 dereferenceable(16) %8, ptr noundef nonnull align 8 dereferenceable(16) %9)
  call void @llvm.lifetime.end.p0(i64 16, ptr %9) #6
  call void @llvm.lifetime.end.p0(i64 16, ptr %8) #6
  store i32 %26, ptr %7, align 4, !tbaa !15
  %27 = load i32, ptr %7, align 4, !tbaa !15
  %28 = icmp eq i32 %27, 0
  br i1 %28, label %29, label %57

29:                                               ; preds = %3
  call void @llvm.lifetime.start.p0(i64 8, ptr %10) #6
  %30 = load ptr, ptr %5, align 8, !tbaa !13
  %31 = call noundef ptr @_ZNK7rocksdb5Slice4dataEv(ptr noundef nonnull align 8 dereferenceable(16) %30)
  %32 = load ptr, ptr %5, align 8, !tbaa !13
  %33 = call noundef i64 @_ZNK7rocksdb5Slice4sizeEv(ptr noundef nonnull align 8 dereferenceable(16) %32)
  %34 = getelementptr inbounds nuw i8, ptr %31, i64 %33
  %35 = getelementptr inbounds i8, ptr %34, i64 -8
  %36 = call noundef i64 @_ZN7rocksdb13DecodeFixed64EPKc(ptr noundef %35)
  %37 = lshr i64 %36, 8
  store i64 %37, ptr %10, align 8, !tbaa !4
  call void @llvm.lifetime.start.p0(i64 8, ptr %11) #6
  %38 = load ptr, ptr %6, align 8, !tbaa !13
  %39 = call noundef ptr @_ZNK7rocksdb5Slice4dataEv(ptr noundef nonnull align 8 dereferenceable(16) %38)
  %40 = load ptr, ptr %6, align 8, !tbaa !13
  %41 = call noundef i64 @_ZNK7rocksdb5Slice4sizeEv(ptr noundef nonnull align 8 dereferenceable(16) %40)
  %42 = getelementptr inbounds nuw i8, ptr %39, i64 %41
  %43 = getelementptr inbounds i8, ptr %42, i64 -8
  %44 = call noundef i64 @_ZN7rocksdb13DecodeFixed64EPKc(ptr noundef %43)
  %45 = lshr i64 %44, 8
  store i64 %45, ptr %11, align 8, !tbaa !4
  %46 = load i64, ptr %10, align 8, !tbaa !4
  %47 = load i64, ptr %11, align 8, !tbaa !4
  %48 = icmp ugt i64 %46, %47
  br i1 %48, label %49, label %50

49:                                               ; preds = %29
  store i32 -1, ptr %7, align 4, !tbaa !15
  br label %56

50:                                               ; preds = %29
  %51 = load i64, ptr %10, align 8, !tbaa !4
  %52 = load i64, ptr %11, align 8, !tbaa !4
  %53 = icmp ult i64 %51, %52
  br i1 %53, label %54, label %55

54:                                               ; preds = %50
  store i32 1, ptr %7, align 4, !tbaa !15
  br label %55

55:                                               ; preds = %54, %50
  br label %56

56:                                               ; preds = %55, %49
  call void @llvm.lifetime.end.p0(i64 8, ptr %11) #6
  call void @llvm.lifetime.end.p0(i64 8, ptr %10) #6
  br label %57

57:                                               ; preds = %56, %3
  %58 = load i32, ptr %7, align 4, !tbaa !15
  call void @llvm.lifetime.end.p0(i64 4, ptr %7) #6
  ret i32 %58
}

; Function Attrs: inlinehint mustprogress uwtable
define linkonce_odr { ptr, i64 } @_ZN7rocksdb22GetLengthPrefixedSliceEPKc(ptr noundef %0) #3 comdat {
  %2 = alloca %"class.rocksdb::Slice", align 8
  %3 = alloca ptr, align 8
  %4 = alloca i32, align 4
  %5 = alloca ptr, align 8
  store ptr %0, ptr %3, align 8, !tbaa !28
  call void @llvm.lifetime.start.p0(i64 4, ptr %4) #6
  store i32 0, ptr %4, align 4, !tbaa !15
  call void @llvm.lifetime.start.p0(i64 8, ptr %5) #6
  %6 = load ptr, ptr %3, align 8, !tbaa !28
  %7 = load ptr, ptr %3, align 8, !tbaa !28
  %8 = getelementptr inbounds i8, ptr %7, i64 5
  %9 = call noundef ptr @_ZN7rocksdb14GetVarint32PtrEPKcS1_Pj(ptr noundef %6, ptr noundef %8, ptr noundef %4)
  store ptr %9, ptr %5, align 8, !tbaa !28
  %10 = load ptr, ptr %5, align 8, !tbaa !28
  %11 = load i32, ptr %4, align 4, !tbaa !15
  %12 = zext i32 %11 to i64
  call void @_ZN7rocksdb5SliceC2EPKcm(ptr noundef nonnull align 8 dereferenceable(16) %2, ptr noundef %10, i64 noundef %12)
  call void @llvm.lifetime.end.p0(i64 8, ptr %5) #6
  call void @llvm.lifetime.end.p0(i64 4, ptr %4) #6
  %13 = load { ptr, i64 }, ptr %2, align 8
  ret { ptr, i64 } %13
}

; Function Attrs: mustprogress uwtable
define noundef i32 @_ZNK7rocksdb8MemTable13KeyComparatorclEPKcRKNS_5SliceE(ptr noundef nonnull align 8 dereferenceable(24) %0, ptr noundef %1, ptr noundef nonnull align 8 dereferenceable(16) %2) unnamed_addr #4 align 2 {
  %4 = alloca ptr, align 8
  %5 = alloca ptr, align 8
  %6 = alloca ptr, align 8
  %7 = alloca %"class.rocksdb::Slice", align 8
  store ptr %0, ptr %4, align 8, !tbaa !375
  store ptr %1, ptr %5, align 8, !tbaa !28
  store ptr %2, ptr %6, align 8, !tbaa !13
  %8 = load ptr, ptr %4, align 8
  call void @llvm.lifetime.start.p0(i64 16, ptr %7) #6
  %9 = load ptr, ptr %5, align 8, !tbaa !28
  %10 = call { ptr, i64 } @_ZN7rocksdb22GetLengthPrefixedSliceEPKc(ptr noundef %9)
  %11 = getelementptr inbounds nuw { ptr, i64 }, ptr %7, i32 0, i32 0
  %12 = extractvalue { ptr, i64 } %10, 0
  store ptr %12, ptr %11, align 8
  %13 = getelementptr inbounds nuw { ptr, i64 }, ptr %7, i32 0, i32 1
  %14 = extractvalue { ptr, i64 } %10, 1
  store i64 %14, ptr %13, align 8
  %15 = getelementptr inbounds nuw %"struct.rocksdb::MemTable::KeyComparator", ptr %8, i32 0, i32 1
  %16 = load ptr, ptr %6, align 8, !tbaa !13
  %17 = call noundef i32 @_ZNK7rocksdb21InternalKeyComparator13CompareKeySeqERKNS_5SliceES3_(ptr noundef nonnull align 8 dereferenceable(16) %15, ptr noundef nonnull align 8 dereferenceable(16) %7, ptr noundef nonnull align 8 dereferenceable(16) %16)
  call void @llvm.lifetime.end.p0(i64 16, ptr %7) #6
  ret i32 %17
}