; Function Attrs: uwtable
define noundef i32 @_ZNK7rocksdb8MemTable13KeyComparatorclEPKcRKNS_5SliceE(ptr noundef nonnull readonly align 8 captures(none) dereferenceable(24) %0, ptr noundef %1, ptr noundef nonnull readonly align 8 captures(none) dereferenceable(16) %2) unnamed_addr #17 align 2 {
  %4 = alloca %"class.rocksdb::Slice", align 8
  %5 = alloca %"class.rocksdb::Slice", align 8
  %6 = alloca i32, align 4
  call void @llvm.lifetime.start.p0(i64 4, ptr nonnull %6) #35
  store i32 0, ptr %6, align 4, !tbaa !372
  %7 = load i8, ptr %1, align 1, !tbaa !30
  %8 = icmp sgt i8 %7, -1
  br i1 %8, label %9, label %.thread.i.i

9:                                                ; preds = %3
  %10 = zext nneg i8 %7 to i32
  %11 = getelementptr inbounds nuw i8, ptr %1, i64 1
  br label %_ZN7rocksdb22GetLengthPrefixedSliceEPKc.exit

.thread.i.i:                                      ; preds = %3
  %12 = getelementptr inbounds nuw i8, ptr %1, i64 5
  %13 = call noundef ptr @_ZN7rocksdb22GetVarint32PtrFallbackEPKcS1_Pj(ptr noundef nonnull %1, ptr noundef nonnull %12, ptr noundef nonnull %6)
  %.pre.i = load i32, ptr %6, align 4, !tbaa !372
  br label %_ZN7rocksdb22GetLengthPrefixedSliceEPKc.exit

_ZN7rocksdb22GetLengthPrefixedSliceEPKc.exit:     ; preds = %9, %.thread.i.i
  %14 = phi i32 [ %10, %9 ], [ %.pre.i, %.thread.i.i ]
  %.1.i.i = phi ptr [ %11, %9 ], [ %13, %.thread.i.i ]
  %15 = zext i32 %14 to i64
  call void @llvm.lifetime.end.p0(i64 4, ptr nonnull %6) #35
  %16 = getelementptr inbounds nuw i8, ptr %0, i64 16
  call void @llvm.lifetime.start.p0(i64 16, ptr nonnull %4) #35
  %17 = add nsw i64 %15, -8
  store ptr %.1.i.i, ptr %4, align 8
  %18 = getelementptr inbounds nuw i8, ptr %4, i64 8
  store i64 %17, ptr %18, align 8
  call void @llvm.lifetime.start.p0(i64 16, ptr nonnull %5) #35
  %19 = load ptr, ptr %2, align 8, !tbaa !4
  %20 = getelementptr inbounds nuw i8, ptr %2, i64 8
  %21 = load i64, ptr %20, align 8, !tbaa !11
  %22 = add i64 %21, -8
  store ptr %19, ptr %5, align 8
  %23 = getelementptr inbounds nuw i8, ptr %5, i64 8
  store i64 %22, ptr %23, align 8
  %.not.i.i.i = icmp eq ptr @_ZTHN7rocksdb10perf_levelE, null
  br i1 %.not.i.i.i, label %_ZTWN7rocksdb10perf_levelE.exit.i.i, label %24

24:                                               ; preds = %_ZN7rocksdb22GetLengthPrefixedSliceEPKc.exit
  call void @_ZTHN7rocksdb10perf_levelE()
  br label %_ZTWN7rocksdb10perf_levelE.exit.i.i

_ZTWN7rocksdb10perf_levelE.exit.i.i:              ; preds = %24, %_ZN7rocksdb22GetLengthPrefixedSliceEPKc.exit
  %25 = call noundef align 1 ptr @llvm.threadlocal.address.p0(ptr align 1 @_ZN7rocksdb10perf_levelE)
  %26 = load i8, ptr %25, align 1, !tbaa !12
  %27 = icmp ugt i8 %26, 1
  br i1 %27, label %28, label %_ZNK7rocksdb21UserComparatorWrapper7CompareERKNS_5SliceES3_.exit.i

28:                                               ; preds = %_ZTWN7rocksdb10perf_levelE.exit.i.i
  %.not.i3.i.i = icmp eq ptr @_ZTHN7rocksdb12perf_contextE, null
  br i1 %.not.i3.i.i, label %_ZTWN7rocksdb12perf_contextE.exit.i.i, label %29

29:                                               ; preds = %28
  call void @_ZTHN7rocksdb12perf_contextE()
  br label %_ZTWN7rocksdb12perf_contextE.exit.i.i

_ZTWN7rocksdb12perf_contextE.exit.i.i:            ; preds = %29, %28
  %30 = call noundef align 8 ptr @llvm.threadlocal.address.p0(ptr align 8 @_ZN7rocksdb12perf_contextE)
  %31 = load i64, ptr %30, align 8, !tbaa !14
  %32 = add i64 %31, 1
  store i64 %32, ptr %30, align 8, !tbaa !14
  br label %_ZNK7rocksdb21UserComparatorWrapper7CompareERKNS_5SliceES3_.exit.i

_ZNK7rocksdb21UserComparatorWrapper7CompareERKNS_5SliceES3_.exit.i: ; preds = %_ZTWN7rocksdb12perf_contextE.exit.i.i, %_ZTWN7rocksdb10perf_levelE.exit.i.i
  %33 = load ptr, ptr %16, align 8, !tbaa !16
  %34 = getelementptr inbounds nuw i8, ptr %33, i64 32
  %35 = load ptr, ptr %34, align 8, !tbaa !19
  %36 = getelementptr inbounds nuw i8, ptr %35, i64 16
  %37 = load ptr, ptr %36, align 8
  %38 = call noundef i32 %37(ptr noundef nonnull align 8 dereferenceable(8) %34, ptr noundef nonnull align 8 dereferenceable(16) %4, ptr noundef nonnull align 8 dereferenceable(16) %5)
  call void @llvm.lifetime.end.p0(i64 16, ptr nonnull %5) #35
  call void @llvm.lifetime.end.p0(i64 16, ptr nonnull %4) #35
  %39 = icmp eq i32 %38, 0
  br i1 %39, label %40, label %_ZNK7rocksdb21InternalKeyComparator13CompareKeySeqERKNS_5SliceES3_.exit

40:                                               ; preds = %_ZNK7rocksdb21UserComparatorWrapper7CompareERKNS_5SliceES3_.exit.i
  %41 = getelementptr inbounds nuw i8, ptr %.1.i.i, i64 %15
  %42 = getelementptr inbounds i8, ptr %41, i64 -8
  %.0.copyload.i.i = load i64, ptr %42, align 1
  %43 = lshr i64 %.0.copyload.i.i, 8
  %44 = load ptr, ptr %2, align 8, !tbaa !4
  %45 = load i64, ptr %20, align 8, !tbaa !11
  %46 = getelementptr inbounds nuw i8, ptr %44, i64 %45
  %47 = getelementptr inbounds i8, ptr %46, i64 -8
  %.0.copyload.i18.i = load i64, ptr %47, align 1
  %48 = lshr i64 %.0.copyload.i18.i, 8
  %49 = icmp samesign ugt i64 %43, %48
  br i1 %49, label %_ZNK7rocksdb21InternalKeyComparator13CompareKeySeqERKNS_5SliceES3_.exit, label %50

50:                                               ; preds = %40
  %51 = icmp samesign ult i64 %43, %48
  %spec.select.i = zext i1 %51 to i32
  br label %_ZNK7rocksdb21InternalKeyComparator13CompareKeySeqERKNS_5SliceES3_.exit

_ZNK7rocksdb21InternalKeyComparator13CompareKeySeqERKNS_5SliceES3_.exit: ; preds = %_ZNK7rocksdb21UserComparatorWrapper7CompareERKNS_5SliceES3_.exit.i, %40, %50
  %.0.i = phi i32 [ %38, %_ZNK7rocksdb21UserComparatorWrapper7CompareERKNS_5SliceES3_.exit.i ], [ -1, %40 ], [ %spec.select.i, %50 ]
  ret i32 %.0.i
}